
main.elf:     file format elf32-avr

Sections:
Idx Name          Size      VMA       LMA       File off  Algn
  0 .text         000004b2  00000000  00000000  00000074  2**1
                  CONTENTS, ALLOC, LOAD, READONLY, CODE
  1 .data         00000036  00800060  000004b2  00000526  2**0
                  CONTENTS, ALLOC, LOAD, DATA
  2 .debug_aranges 00000020  00000000  00000000  0000055c  2**0
                  CONTENTS, READONLY, DEBUGGING
  3 .debug_pubnames 000000e9  00000000  00000000  0000057c  2**0
                  CONTENTS, READONLY, DEBUGGING
  4 .debug_info   000007db  00000000  00000000  00000665  2**0
                  CONTENTS, READONLY, DEBUGGING
  5 .debug_abbrev 000001a1  00000000  00000000  00000e40  2**0
                  CONTENTS, READONLY, DEBUGGING
  6 .debug_line   00000546  00000000  00000000  00000fe1  2**0
                  CONTENTS, READONLY, DEBUGGING
  7 .debug_frame  000000e0  00000000  00000000  00001528  2**2
                  CONTENTS, READONLY, DEBUGGING
  8 .debug_str    000001f0  00000000  00000000  00001608  2**0
                  CONTENTS, READONLY, DEBUGGING
  9 .debug_loc    0000034f  00000000  00000000  000017f8  2**0
                  CONTENTS, READONLY, DEBUGGING
 10 .debug_ranges 00000168  00000000  00000000  00001b47  2**0
                  CONTENTS, READONLY, DEBUGGING

Disassembly of section .text:

00000000 <__vectors>:
   0:	0c 94 2a 00 	jmp	0x54	; 0x54 <__ctors_end>
   4:	0c 94 3f 00 	jmp	0x7e	; 0x7e <__bad_interrupt>
   8:	0c 94 3f 00 	jmp	0x7e	; 0x7e <__bad_interrupt>
   c:	0c 94 3f 00 	jmp	0x7e	; 0x7e <__bad_interrupt>
  10:	0c 94 3f 00 	jmp	0x7e	; 0x7e <__bad_interrupt>
  14:	0c 94 3f 00 	jmp	0x7e	; 0x7e <__bad_interrupt>
  18:	0c 94 3f 00 	jmp	0x7e	; 0x7e <__bad_interrupt>
  1c:	0c 94 3f 00 	jmp	0x7e	; 0x7e <__bad_interrupt>
  20:	0c 94 3f 00 	jmp	0x7e	; 0x7e <__bad_interrupt>
  24:	0c 94 3f 00 	jmp	0x7e	; 0x7e <__bad_interrupt>
  28:	0c 94 3f 00 	jmp	0x7e	; 0x7e <__bad_interrupt>
  2c:	0c 94 3f 00 	jmp	0x7e	; 0x7e <__bad_interrupt>
  30:	0c 94 3f 00 	jmp	0x7e	; 0x7e <__bad_interrupt>
  34:	0c 94 3f 00 	jmp	0x7e	; 0x7e <__bad_interrupt>
  38:	0c 94 3f 00 	jmp	0x7e	; 0x7e <__bad_interrupt>
  3c:	0c 94 3f 00 	jmp	0x7e	; 0x7e <__bad_interrupt>
  40:	0c 94 cb 01 	jmp	0x396	; 0x396 <__vector_16>
  44:	0c 94 3f 00 	jmp	0x7e	; 0x7e <__bad_interrupt>
  48:	0c 94 3f 00 	jmp	0x7e	; 0x7e <__bad_interrupt>
  4c:	0c 94 3f 00 	jmp	0x7e	; 0x7e <__bad_interrupt>
  50:	0c 94 3f 00 	jmp	0x7e	; 0x7e <__bad_interrupt>

00000054 <__ctors_end>:
  54:	11 24       	eor	r1, r1
  56:	1f be       	out	0x3f, r1	; 63
  58:	cf e5       	ldi	r28, 0x5F	; 95
  5a:	d8 e0       	ldi	r29, 0x08	; 8
  5c:	de bf       	out	0x3e, r29	; 62
  5e:	cd bf       	out	0x3d, r28	; 61

00000060 <__do_copy_data>:
  60:	10 e0       	ldi	r17, 0x00	; 0
  62:	a0 e6       	ldi	r26, 0x60	; 96
  64:	b0 e0       	ldi	r27, 0x00	; 0
  66:	e2 eb       	ldi	r30, 0xB2	; 178
  68:	f4 e0       	ldi	r31, 0x04	; 4
  6a:	02 c0       	rjmp	.+4      	; 0x70 <.do_copy_data_start>

0000006c <.do_copy_data_loop>:
  6c:	05 90       	lpm	r0, Z+
  6e:	0d 92       	st	X+, r0

00000070 <.do_copy_data_start>:
  70:	a6 39       	cpi	r26, 0x96	; 150
  72:	b1 07       	cpc	r27, r17
  74:	d9 f7       	brne	.-10     	; 0x6c <.do_copy_data_loop>
  76:	0e 94 bb 01 	call	0x376	; 0x376 <main>
  7a:	0c 94 57 02 	jmp	0x4ae	; 0x4ae <_exit>

0000007e <__bad_interrupt>:
  7e:	0c 94 00 00 	jmp	0	; 0x0 <__vectors>

00000082 <Enable_Vent_Disable>:
DataDir_LCD = 0xFF; //0xFF means 0b11111111
}

void Enable_Vent_Disable()
{
Port_LCDControl |= 1<<Enable_Pin;
  82:	95 9a       	sbi	0x12, 5	; 18
asm volatile ("nop");
  84:	00 00       	nop
asm volatile ("nop");
  86:	00 00       	nop
Port_LCDControl &= ~1<<Enable_Pin; //0
  88:	82 b3       	in	r24, 0x12	; 18
  8a:	80 7c       	andi	r24, 0xC0	; 192
  8c:	82 bb       	out	0x12, r24	; 18
}
  8e:	08 95       	ret

00000090 <Sjekk_Opptatt>:
void Send_Alert(char *StringOfCharacters);


void Sjekk_Opptatt()
{
DataDir_LCD = 0;
  90:	17 ba       	out	0x17, r1	; 23
Port_LCDControl |= 1<<RW_Pin;
  92:	97 9a       	sbi	0x12, 7	; 18
Port_LCDControl &= ~1<<RS_Pin;
  94:	82 b3       	in	r24, 0x12	; 18
  96:	88 7f       	andi	r24, 0xF8	; 248
  98:	82 bb       	out	0x12, r24	; 18
  9a:	02 c0       	rjmp	.+4      	; 0xa0 <Sjekk_Opptatt+0x10>

while (Port_LCD >= 0x80)
{
Enable_Vent_Disable();
  9c:	0e 94 41 00 	call	0x82	; 0x82 <Enable_Vent_Disable>
{
DataDir_LCD = 0;
Port_LCDControl |= 1<<RW_Pin;
Port_LCDControl &= ~1<<RS_Pin;

while (Port_LCD >= 0x80)
  a0:	c7 99       	sbic	0x18, 7	; 24
  a2:	fc cf       	rjmp	.-8      	; 0x9c <Sjekk_Opptatt+0xc>
{
Enable_Vent_Disable();
}
DataDir_LCD = 0xFF; //0xFF means 0b11111111
  a4:	8f ef       	ldi	r24, 0xFF	; 255
  a6:	87 bb       	out	0x17, r24	; 23
}
  a8:	08 95       	ret

000000aa <Send_Kommando>:
asm volatile ("nop");
Port_LCDControl &= ~1<<Enable_Pin; //0
}

void Send_Kommando(unsigned char command)
{
  aa:	1f 93       	push	r17
  ac:	18 2f       	mov	r17, r24
Sjekk_Opptatt();
  ae:	0e 94 48 00 	call	0x90	; 0x90 <Sjekk_Opptatt>
Port_LCD = command;
  b2:	18 bb       	out	0x18, r17	; 24
Port_LCDControl &= ~ ((1<<RW_Pin)|(1<<RS_Pin));
  b4:	82 b3       	in	r24, 0x12	; 18
  b6:	8b 77       	andi	r24, 0x7B	; 123
  b8:	82 bb       	out	0x12, r24	; 18
Enable_Vent_Disable();
  ba:	0e 94 41 00 	call	0x82	; 0x82 <Enable_Vent_Disable>
Port_LCD = 0;
  be:	18 ba       	out	0x18, r1	; 24
}
  c0:	1f 91       	pop	r17
  c2:	08 95       	ret

000000c4 <Send_Bokstav>:

void Send_Bokstav(unsigned char character)
{
  c4:	1f 93       	push	r17
  c6:	18 2f       	mov	r17, r24
Sjekk_Opptatt();
  c8:	0e 94 48 00 	call	0x90	; 0x90 <Sjekk_Opptatt>
Port_LCD = character;
  cc:	18 bb       	out	0x18, r17	; 24
Port_LCDControl &= ~ (1<<RW_Pin);
  ce:	97 98       	cbi	0x12, 7	; 18
Port_LCDControl |= 1<<RS_Pin;
  d0:	92 9a       	sbi	0x12, 2	; 18
Enable_Vent_Disable();
  d2:	0e 94 41 00 	call	0x82	; 0x82 <Enable_Vent_Disable>
Port_LCD = 0;
  d6:	18 ba       	out	0x18, r1	; 24
}
  d8:	1f 91       	pop	r17
  da:	08 95       	ret

000000dc <Send_Streng>:

void Send_Streng(char *StringOfCharacters){
  dc:	8f 92       	push	r8
  de:	9f 92       	push	r9
  e0:	af 92       	push	r10
  e2:	bf 92       	push	r11
  e4:	cf 92       	push	r12
  e6:	df 92       	push	r13
  e8:	ef 92       	push	r14
  ea:	ff 92       	push	r15
  ec:	0f 93       	push	r16
  ee:	1f 93       	push	r17
  f0:	cf 93       	push	r28
  f2:	df 93       	push	r29
  f4:	7c 01       	movw	r14, r24
  f6:	08 94       	sec
  f8:	e1 08       	sbc	r14, r1
  fa:	f1 08       	sbc	r15, r1
  fc:	00 e0       	ldi	r16, 0x00	; 0
  fe:	10 e0       	ldi	r17, 0x00	; 0
 100:	c1 e0       	ldi	r28, 0x01	; 1
 102:	d0 e0       	ldi	r29, 0x00	; 0
 104:	81 e0       	ldi	r24, 0x01	; 1
 106:	90 e0       	ldi	r25, 0x00	; 0
 108:	41 e0       	ldi	r20, 0x01	; 1
 10a:	c4 2e       	mov	r12, r20
 10c:	d1 2c       	mov	r13, r1
    milliseconds can be achieved.
 */
void
_delay_loop_2(uint16_t __count)
{
	__asm__ volatile (
 10e:	30 e2       	ldi	r19, 0x20	; 32
 110:	83 2e       	mov	r8, r19
 112:	3e e4       	ldi	r19, 0x4E	; 78
 114:	93 2e       	mov	r9, r19
	int i=0, j=0, space=0,plass=1, start=1,line=1;
	char *newplace, *countplace;
	
	while(*(&*StringOfCharacters+i)>0){
 116:	20 e3       	ldi	r18, 0x30	; 48
 118:	a2 2e       	mov	r10, r18
 11a:	25 e7       	ldi	r18, 0x75	; 117
 11c:	b2 2e       	mov	r11, r18
 11e:	4f c0       	rjmp	.+158    	; 0x1be <Send_Streng+0xe2>
 120:	f7 01       	movw	r30, r14
 122:	20 e0       	ldi	r18, 0x00	; 0
 124:	30 e0       	ldi	r19, 0x00	; 0
		
		for(j=0;j<18 && start==1;j++){
			if(*(&*StringOfCharacters+i+j-1)==0x20){
 126:	80 81       	ld	r24, Z
 128:	80 32       	cpi	r24, 0x20	; 32
 12a:	09 f4       	brne	.+2      	; 0x12e <Send_Streng+0x52>
 12c:	89 01       	movw	r16, r18
	int i=0, j=0, space=0,plass=1, start=1,line=1;
	char *newplace, *countplace;
	
	while(*(&*StringOfCharacters+i)>0){
		
		for(j=0;j<18 && start==1;j++){
 12e:	2f 5f       	subi	r18, 0xFF	; 255
 130:	3f 4f       	sbci	r19, 0xFF	; 255
 132:	31 96       	adiw	r30, 0x01	; 1
 134:	22 31       	cpi	r18, 0x12	; 18
 136:	31 05       	cpc	r19, r1
 138:	b1 f7       	brne	.-20     	; 0x126 <Send_Streng+0x4a>
 13a:	02 c0       	rjmp	.+4      	; 0x140 <Send_Streng+0x64>
 13c:	01 97       	sbiw	r24, 0x01	; 1
 13e:	81 f3       	breq	.-32     	; 0x120 <Send_Streng+0x44>
				
			}
		}
		
		start=0;
		Send_Bokstav(*(&*StringOfCharacters+i));
 140:	84 2f       	mov	r24, r20
 142:	0e 94 62 00 	call	0xc4	; 0xc4 <Send_Bokstav>
 146:	c4 01       	movw	r24, r8
 148:	01 97       	sbiw	r24, 0x01	; 1
 14a:	f1 f7       	brne	.-4      	; 0x148 <Send_Streng+0x6c>
		_delay_ms(10);
		if (plass==space | (plass>15 && space==0)){
 14c:	c0 31       	cpi	r28, 0x10	; 16
 14e:	d1 05       	cpc	r29, r1
 150:	1c f4       	brge	.+6      	; 0x158 <Send_Streng+0x7c>
 152:	80 e0       	ldi	r24, 0x00	; 0
 154:	90 e0       	ldi	r25, 0x00	; 0
 156:	07 c0       	rjmp	.+14     	; 0x166 <Send_Streng+0x8a>
 158:	80 e0       	ldi	r24, 0x00	; 0
 15a:	90 e0       	ldi	r25, 0x00	; 0
 15c:	01 15       	cp	r16, r1
 15e:	11 05       	cpc	r17, r1
 160:	11 f4       	brne	.+4      	; 0x166 <Send_Streng+0x8a>
 162:	81 e0       	ldi	r24, 0x01	; 1
 164:	90 e0       	ldi	r25, 0x00	; 0
 166:	c0 17       	cp	r28, r16
 168:	d1 07       	cpc	r29, r17
 16a:	29 f0       	breq	.+10     	; 0x176 <Send_Streng+0x9a>
 16c:	88 23       	and	r24, r24
 16e:	19 f4       	brne	.+6      	; 0x176 <Send_Streng+0x9a>
 170:	80 e0       	ldi	r24, 0x00	; 0
 172:	90 e0       	ldi	r25, 0x00	; 0
 174:	20 c0       	rjmp	.+64     	; 0x1b6 <Send_Streng+0xda>
			if(line==1){
 176:	81 e0       	ldi	r24, 0x01	; 1
 178:	c8 16       	cp	r12, r24
 17a:	d1 04       	cpc	r13, r1
 17c:	39 f4       	brne	.+14     	; 0x18c <Send_Streng+0xb0>
				Send_Kommando(0x80+40);line=2;
 17e:	88 ea       	ldi	r24, 0xA8	; 168
 180:	0e 94 55 00 	call	0xaa	; 0xaa <Send_Kommando>
 184:	92 e0       	ldi	r25, 0x02	; 2
 186:	c9 2e       	mov	r12, r25
 188:	d1 2c       	mov	r13, r1
 18a:	09 c0       	rjmp	.+18     	; 0x19e <Send_Streng+0xc2>
 18c:	c5 01       	movw	r24, r10
 18e:	01 97       	sbiw	r24, 0x01	; 1
 190:	f1 f7       	brne	.-4      	; 0x18e <Send_Streng+0xb2>
			}else{
				_delay_ms(15);
				Send_Kommando(0x01);line=1;
 192:	81 e0       	ldi	r24, 0x01	; 1
 194:	0e 94 55 00 	call	0xaa	; 0xaa <Send_Kommando>
 198:	81 e0       	ldi	r24, 0x01	; 1
 19a:	c8 2e       	mov	r12, r24
 19c:	d1 2c       	mov	r13, r1
			}
			Send_Kommando(0x80+40);
 19e:	88 ea       	ldi	r24, 0xA8	; 168
 1a0:	0e 94 55 00 	call	0xaa	; 0xaa <Send_Kommando>
 1a4:	c5 01       	movw	r24, r10
 1a6:	01 97       	sbiw	r24, 0x01	; 1
 1a8:	f1 f7       	brne	.-4      	; 0x1a6 <Send_Streng+0xca>
 1aa:	00 e0       	ldi	r16, 0x00	; 0
 1ac:	10 e0       	ldi	r17, 0x00	; 0
 1ae:	c0 e0       	ldi	r28, 0x00	; 0
 1b0:	d0 e0       	ldi	r29, 0x00	; 0
 1b2:	81 e0       	ldi	r24, 0x01	; 1
 1b4:	90 e0       	ldi	r25, 0x00	; 0
			plass=0;
			space=0;
			
		}
		i++;
		plass++;
 1b6:	21 96       	adiw	r28, 0x01	; 1
 1b8:	08 94       	sec
 1ba:	e1 1c       	adc	r14, r1
 1bc:	f1 1c       	adc	r15, r1

void Send_Streng(char *StringOfCharacters){
	int i=0, j=0, space=0,plass=1, start=1,line=1;
	char *newplace, *countplace;
	
	while(*(&*StringOfCharacters+i)>0){
 1be:	f7 01       	movw	r30, r14
 1c0:	41 81       	ldd	r20, Z+1	; 0x01
 1c2:	44 23       	and	r20, r20
 1c4:	09 f0       	breq	.+2      	; 0x1c8 <Send_Streng+0xec>
 1c6:	ba cf       	rjmp	.-140    	; 0x13c <Send_Streng+0x60>
			
		}
		i++;
		plass++;
	}
}
 1c8:	df 91       	pop	r29
 1ca:	cf 91       	pop	r28
 1cc:	1f 91       	pop	r17
 1ce:	0f 91       	pop	r16
 1d0:	ff 90       	pop	r15
 1d2:	ef 90       	pop	r14
 1d4:	df 90       	pop	r13
 1d6:	cf 90       	pop	r12
 1d8:	bf 90       	pop	r11
 1da:	af 90       	pop	r10
 1dc:	9f 90       	pop	r9
 1de:	8f 90       	pop	r8
 1e0:	08 95       	ret

000001e2 <Send_Kort_Streng>:
void Send_Kort_Streng(char *StringOfCharacters){
 1e2:	cf 93       	push	r28
 1e4:	df 93       	push	r29
 1e6:	ec 01       	movw	r28, r24
 1e8:	03 c0       	rjmp	.+6      	; 0x1f0 <Send_Kort_Streng+0xe>
	int i=0;
	while(*StringOfCharacters > 0){
		Send_Bokstav(*StringOfCharacters++);
 1ea:	21 96       	adiw	r28, 0x01	; 1
 1ec:	0e 94 62 00 	call	0xc4	; 0xc4 <Send_Bokstav>
		plass++;
	}
}
void Send_Kort_Streng(char *StringOfCharacters){
	int i=0;
	while(*StringOfCharacters > 0){
 1f0:	88 81       	ld	r24, Y
 1f2:	88 23       	and	r24, r24
 1f4:	d1 f7       	brne	.-12     	; 0x1ea <Send_Kort_Streng+0x8>
		Send_Bokstav(*StringOfCharacters++);

	}
}
 1f6:	df 91       	pop	r29
 1f8:	cf 91       	pop	r28
 1fa:	08 95       	ret

000001fc <AlleTegn>:
void AlleTegn(){
 1fc:	e0 e6       	ldi	r30, 0x60	; 96
 1fe:	f0 e0       	ldi	r31, 0x00	; 0
 200:	81 e4       	ldi	r24, 0x41	; 65
	char *j="a";
	int i;
	for(i=0;i<110;i++){
		j[i]=0x41+i;
 202:	81 93       	st	Z+, r24
 204:	8f 5f       	subi	r24, 0xFF	; 255
	}
}
void AlleTegn(){
	char *j="a";
	int i;
	for(i=0;i<110;i++){
 206:	8f 3a       	cpi	r24, 0xAF	; 175
 208:	e1 f7       	brne	.-8      	; 0x202 <AlleTegn+0x6>
		j[i]=0x41+i;
	}
	Send_Streng(*j);
 20a:	81 e6       	ldi	r24, 0x61	; 97
 20c:	90 e0       	ldi	r25, 0x00	; 0
 20e:	0e 94 6e 00 	call	0xdc	; 0xdc <Send_Streng>
}
 212:	08 95       	ret

00000214 <LoadingScreen>:
void LoadingScreen(){
 214:	0f 93       	push	r16
 216:	1f 93       	push	r17
 218:	cf 93       	push	r28
 21a:	df 93       	push	r29
 21c:	80 e4       	ldi	r24, 0x40	; 64
 21e:	9c e9       	ldi	r25, 0x9C	; 156
 220:	01 97       	sbiw	r24, 0x01	; 1
 222:	f1 f7       	brne	.-4      	; 0x220 <LoadingScreen+0xc>
	int i;
	_delay_ms(20);
	Send_Kort_Streng("Loading OS");
 224:	82 e6       	ldi	r24, 0x62	; 98
 226:	90 e0       	ldi	r25, 0x00	; 0
 228:	0e 94 f1 00 	call	0x1e2	; 0x1e2 <Send_Kort_Streng>
 22c:	00 e2       	ldi	r16, 0x20	; 32
 22e:	1e e4       	ldi	r17, 0x4E	; 78
 230:	c8 01       	movw	r24, r16
 232:	01 97       	sbiw	r24, 0x01	; 1
 234:	f1 f7       	brne	.-4      	; 0x232 <LoadingScreen+0x1e>
	_delay_ms(10);
	Send_Kommando(0x80+40);
 236:	88 ea       	ldi	r24, 0xA8	; 168
 238:	0e 94 55 00 	call	0xaa	; 0xaa <Send_Kommando>
 23c:	c8 01       	movw	r24, r16
 23e:	01 97       	sbiw	r24, 0x01	; 1
 240:	f1 f7       	brne	.-4      	; 0x23e <LoadingScreen+0x2a>
 242:	c0 e0       	ldi	r28, 0x00	; 0
 244:	d0 e0       	ldi	r29, 0x00	; 0
	_delay_ms(10);
	for(i=0;i<16;i++){
		Send_Bokstav(0b11111111);
 246:	00 e6       	ldi	r16, 0x60	; 96
 248:	1a ee       	ldi	r17, 0xEA	; 234
 24a:	8f ef       	ldi	r24, 0xFF	; 255
 24c:	0e 94 62 00 	call	0xc4	; 0xc4 <Send_Bokstav>
 250:	c8 01       	movw	r24, r16
 252:	01 97       	sbiw	r24, 0x01	; 1
 254:	f1 f7       	brne	.-4      	; 0x252 <LoadingScreen+0x3e>
	_delay_ms(20);
	Send_Kort_Streng("Loading OS");
	_delay_ms(10);
	Send_Kommando(0x80+40);
	_delay_ms(10);
	for(i=0;i<16;i++){
 256:	21 96       	adiw	r28, 0x01	; 1
 258:	c0 31       	cpi	r28, 0x10	; 16
 25a:	d1 05       	cpc	r29, r1
 25c:	b1 f7       	brne	.-20     	; 0x24a <LoadingScreen+0x36>
 25e:	00 e3       	ldi	r16, 0x30	; 48
 260:	15 e7       	ldi	r17, 0x75	; 117
 262:	c8 01       	movw	r24, r16
 264:	01 97       	sbiw	r24, 0x01	; 1
 266:	f1 f7       	brne	.-4      	; 0x264 <LoadingScreen+0x50>
		Send_Bokstav(0b11111111);
		_delay_ms(30);
	}
	_delay_ms(15);
	Send_Kommando(0x01);
 268:	81 e0       	ldi	r24, 0x01	; 1
 26a:	0e 94 55 00 	call	0xaa	; 0xaa <Send_Kommando>
 26e:	c8 01       	movw	r24, r16
 270:	01 97       	sbiw	r24, 0x01	; 1
 272:	f1 f7       	brne	.-4      	; 0x270 <LoadingScreen+0x5c>
	_delay_ms(15);
}
 274:	df 91       	pop	r29
 276:	cf 91       	pop	r28
 278:	1f 91       	pop	r17
 27a:	0f 91       	pop	r16
 27c:	08 95       	ret

0000027e <Alert>:
void Alert(char *StringOfCharacters){
 27e:	ef 92       	push	r14
 280:	ff 92       	push	r15
 282:	0f 93       	push	r16
 284:	1f 93       	push	r17
 286:	7c 01       	movw	r14, r24
 288:	00 e3       	ldi	r16, 0x30	; 48
 28a:	15 e7       	ldi	r17, 0x75	; 117
 28c:	c8 01       	movw	r24, r16
 28e:	01 97       	sbiw	r24, 0x01	; 1
 290:	f1 f7       	brne	.-4      	; 0x28e <Alert+0x10>
	int i;
	_delay_ms(15);
	Send_Kommando(0x01);
 292:	81 e0       	ldi	r24, 0x01	; 1
 294:	0e 94 55 00 	call	0xaa	; 0xaa <Send_Kommando>
 298:	c8 01       	movw	r24, r16
 29a:	01 97       	sbiw	r24, 0x01	; 1
 29c:	f1 f7       	brne	.-4      	; 0x29a <Alert+0x1c>
	_delay_ms(15);
	for(i=0;i<2;i++){
		Send_Kort_Streng("ÿÿÿÿÿALERT!ÿÿÿÿÿ");
 29e:	8d e6       	ldi	r24, 0x6D	; 109
 2a0:	90 e0       	ldi	r25, 0x00	; 0
 2a2:	0e 94 f1 00 	call	0x1e2	; 0x1e2 <Send_Kort_Streng>
 2a6:	00 e6       	ldi	r16, 0x60	; 96
 2a8:	1a ee       	ldi	r17, 0xEA	; 234
 2aa:	c8 01       	movw	r24, r16
 2ac:	01 97       	sbiw	r24, 0x01	; 1
 2ae:	f1 f7       	brne	.-4      	; 0x2ac <Alert+0x2e>
		_delay_ms(30);
		Send_Kommando(0x01);
 2b0:	81 e0       	ldi	r24, 0x01	; 1
 2b2:	0e 94 55 00 	call	0xaa	; 0xaa <Send_Kommando>
 2b6:	c8 01       	movw	r24, r16
 2b8:	01 97       	sbiw	r24, 0x01	; 1
 2ba:	f1 f7       	brne	.-4      	; 0x2b8 <Alert+0x3a>
	int i;
	_delay_ms(15);
	Send_Kommando(0x01);
	_delay_ms(15);
	for(i=0;i<2;i++){
		Send_Kort_Streng("ÿÿÿÿÿALERT!ÿÿÿÿÿ");
 2bc:	8d e6       	ldi	r24, 0x6D	; 109
 2be:	90 e0       	ldi	r25, 0x00	; 0
 2c0:	0e 94 f1 00 	call	0x1e2	; 0x1e2 <Send_Kort_Streng>
 2c4:	c8 01       	movw	r24, r16
 2c6:	01 97       	sbiw	r24, 0x01	; 1
 2c8:	f1 f7       	brne	.-4      	; 0x2c6 <Alert+0x48>
		_delay_ms(30);
		Send_Kommando(0x01);
 2ca:	81 e0       	ldi	r24, 0x01	; 1
 2cc:	0e 94 55 00 	call	0xaa	; 0xaa <Send_Kommando>
 2d0:	c8 01       	movw	r24, r16
 2d2:	01 97       	sbiw	r24, 0x01	; 1
 2d4:	f1 f7       	brne	.-4      	; 0x2d2 <Alert+0x54>
		_delay_ms(30);
	}
	Send_Kort_Streng("ÿÿÿÿÿALERT!ÿÿÿÿÿ");
 2d6:	8d e6       	ldi	r24, 0x6D	; 109
 2d8:	90 e0       	ldi	r25, 0x00	; 0
 2da:	0e 94 f1 00 	call	0x1e2	; 0x1e2 <Send_Kort_Streng>
	Send_Kommando(0x80+40);
 2de:	88 ea       	ldi	r24, 0xA8	; 168
 2e0:	0e 94 55 00 	call	0xaa	; 0xaa <Send_Kommando>
	Send_Kort_Streng(StringOfCharacters);
 2e4:	c7 01       	movw	r24, r14
 2e6:	0e 94 f1 00 	call	0x1e2	; 0x1e2 <Send_Kort_Streng>
 2ea:	84 ea       	ldi	r24, 0xA4	; 164
 2ec:	96 e0       	ldi	r25, 0x06	; 6
 2ee:	28 ec       	ldi	r18, 0xC8	; 200
 2f0:	30 e0       	ldi	r19, 0x00	; 0
 2f2:	f9 01       	movw	r30, r18
 2f4:	31 97       	sbiw	r30, 0x01	; 1
 2f6:	f1 f7       	brne	.-4      	; 0x2f4 <Alert+0x76>
		__ticks = (uint16_t) (__ms * 10.0);
		while(__ticks)
		{
			// wait 1/10 ms
			_delay_loop_2(((F_CPU) / 4e3) / 10);
			__ticks --;
 2f8:	01 97       	sbiw	r24, 0x01	; 1
		__ticks = 1;
	else if (__tmp > 65535)
	{
		//	__ticks = requested delay in 1/10 ms
		__ticks = (uint16_t) (__ms * 10.0);
		while(__ticks)
 2fa:	d9 f7       	brne	.-10     	; 0x2f2 <Alert+0x74>
	_delay_ms(170);
	Send_Kommando(0x01);
 2fc:	81 e0       	ldi	r24, 0x01	; 1
 2fe:	0e 94 55 00 	call	0xaa	; 0xaa <Send_Kommando>
 302:	80 e3       	ldi	r24, 0x30	; 48
 304:	95 e7       	ldi	r25, 0x75	; 117
 306:	01 97       	sbiw	r24, 0x01	; 1
 308:	f1 f7       	brne	.-4      	; 0x306 <Alert+0x88>
	_delay_ms(15);
	
}
 30a:	1f 91       	pop	r17
 30c:	0f 91       	pop	r16
 30e:	ff 90       	pop	r15
 310:	ef 90       	pop	r14
 312:	08 95       	ret

00000314 <InitializeLCD>:
void InitializeLCD(){
	DataDir_LCDControl |= 1<<Enable_Pin | 1<<RW_Pin | 1<<RS_Pin;
 314:	81 b3       	in	r24, 0x11	; 17
 316:	84 6a       	ori	r24, 0xA4	; 164
 318:	81 bb       	out	0x11, r24	; 17
 31a:	80 e3       	ldi	r24, 0x30	; 48
 31c:	95 e7       	ldi	r25, 0x75	; 117
 31e:	01 97       	sbiw	r24, 0x01	; 1
 320:	f1 f7       	brne	.-4      	; 0x31e <InitializeLCD+0xa>
	_delay_ms(15);
	Send_Kommando(0x01); //Clear Screen 0x01 = 00000001
 322:	81 e0       	ldi	r24, 0x01	; 1
 324:	0e 94 55 00 	call	0xaa	; 0xaa <Send_Kommando>
 328:	80 ea       	ldi	r24, 0xA0	; 160
 32a:	9f e0       	ldi	r25, 0x0F	; 15
 32c:	01 97       	sbiw	r24, 0x01	; 1
 32e:	f1 f7       	brne	.-4      	; 0x32c <InitializeLCD+0x18>
	_delay_ms(2);
	Send_Kommando(0x38);
 330:	88 e3       	ldi	r24, 0x38	; 56
 332:	0e 94 55 00 	call	0xaa	; 0xaa <Send_Kommando>
    can be achieved.
*/
void
_delay_loop_1(uint8_t __count)
{
	__asm__ volatile (
 336:	85 e8       	ldi	r24, 0x85	; 133
 338:	8a 95       	dec	r24
 33a:	f1 f7       	brne	.-4      	; 0x338 <InitializeLCD+0x24>
	_delay_us(50);
	Send_Kommando(0b00001100);
 33c:	8c e0       	ldi	r24, 0x0C	; 12
 33e:	0e 94 55 00 	call	0xaa	; 0xaa <Send_Kommando>
 342:	84 ef       	ldi	r24, 0xF4	; 244
 344:	91 e0       	ldi	r25, 0x01	; 1
    milliseconds can be achieved.
 */
void
_delay_loop_2(uint16_t __count)
{
	__asm__ volatile (
 346:	28 ec       	ldi	r18, 0xC8	; 200
 348:	30 e0       	ldi	r19, 0x00	; 0
 34a:	f9 01       	movw	r30, r18
 34c:	31 97       	sbiw	r30, 0x01	; 1
 34e:	f1 f7       	brne	.-4      	; 0x34c <InitializeLCD+0x38>
		{
			// wait 1/10 ms
			_delay_loop_2(((F_CPU) / 4e3) / 10);
			__ticks --;
 350:	01 97       	sbiw	r24, 0x01	; 1
		__ticks = 1;
	else if (__tmp > 65535)
	{
		//	__ticks = requested delay in 1/10 ms
		__ticks = (uint16_t) (__ms * 10.0);
		while(__ticks)
 352:	d9 f7       	brne	.-10     	; 0x34a <InitializeLCD+0x36>
	_delay_ms(50);
}
 354:	08 95       	ret

00000356 <Clear_Screen>:
void Clear_Screen(){
 356:	0f 93       	push	r16
 358:	1f 93       	push	r17
 35a:	00 e3       	ldi	r16, 0x30	; 48
 35c:	15 e7       	ldi	r17, 0x75	; 117
 35e:	c8 01       	movw	r24, r16
 360:	01 97       	sbiw	r24, 0x01	; 1
 362:	f1 f7       	brne	.-4      	; 0x360 <Clear_Screen+0xa>
	_delay_ms(15);
	Send_Kommando(0x01);
 364:	81 e0       	ldi	r24, 0x01	; 1
 366:	0e 94 55 00 	call	0xaa	; 0xaa <Send_Kommando>
 36a:	c8 01       	movw	r24, r16
 36c:	01 97       	sbiw	r24, 0x01	; 1
 36e:	f1 f7       	brne	.-4      	; 0x36c <Clear_Screen+0x16>
	_delay_ms(15);
}
 370:	1f 91       	pop	r17
 372:	0f 91       	pop	r16
 374:	08 95       	ret

00000376 <main>:
#include <avr/interrupt.h>
#include <LCD.h>


int main(void){
	InitializeLCD();
 376:	0e 94 8a 01 	call	0x314	; 0x314 <InitializeLCD>
	while(1){
		Clear_Screen();
 37a:	0e 94 ab 01 	call	0x356	; 0x356 <Clear_Screen>
		Send_Kort_Streng("Menu: ");
 37e:	8e e7       	ldi	r24, 0x7E	; 126
 380:	90 e0       	ldi	r25, 0x00	; 0
 382:	0e 94 f1 00 	call	0x1e2	; 0x1e2 <Send_Kort_Streng>
		Send_Kommando(0x40+40);
 386:	88 e6       	ldi	r24, 0x68	; 104
 388:	0e 94 55 00 	call	0xaa	; 0xaa <Send_Kommando>
		Send_Kort_Streng("|Brightness|");
 38c:	85 e8       	ldi	r24, 0x85	; 133
 38e:	90 e0       	ldi	r25, 0x00	; 0
 390:	0e 94 f1 00 	call	0x1e2	; 0x1e2 <Send_Kort_Streng>
 394:	ff cf       	rjmp	.-2      	; 0x394 <main+0x1e>

00000396 <__vector_16>:
	
	while(1){

	}
}
ISR(ADC_vect){
 396:	1f 92       	push	r1
 398:	0f 92       	push	r0
 39a:	0f b6       	in	r0, 0x3f	; 63
 39c:	0f 92       	push	r0
 39e:	11 24       	eor	r1, r1
 3a0:	0f 93       	push	r16
 3a2:	1f 93       	push	r17
 3a4:	2f 93       	push	r18
 3a6:	3f 93       	push	r19
 3a8:	4f 93       	push	r20
 3aa:	5f 93       	push	r21
 3ac:	6f 93       	push	r22
 3ae:	7f 93       	push	r23
 3b0:	8f 93       	push	r24
 3b2:	9f 93       	push	r25
 3b4:	af 93       	push	r26
 3b6:	bf 93       	push	r27
 3b8:	ef 93       	push	r30
 3ba:	ff 93       	push	r31
 3bc:	df 93       	push	r29
 3be:	cf 93       	push	r28
 3c0:	00 d0       	rcall	.+0      	; 0x3c2 <__vector_16+0x2c>
 3c2:	00 d0       	rcall	.+0      	; 0x3c4 <__vector_16+0x2e>
 3c4:	cd b7       	in	r28, 0x3d	; 61
 3c6:	de b7       	in	r29, 0x3e	; 62
	Send_Kommando(0x80+52);
 3c8:	84 eb       	ldi	r24, 0xB4	; 180
 3ca:	0e 94 55 00 	call	0xaa	; 0xaa <Send_Kommando>
	char adcResult[4];
	itoa(ADCH, adcResult, 10);
 3ce:	85 b1       	in	r24, 0x05	; 5
 3d0:	90 e0       	ldi	r25, 0x00	; 0
 3d2:	8e 01       	movw	r16, r28
 3d4:	0f 5f       	subi	r16, 0xFF	; 255
 3d6:	1f 4f       	sbci	r17, 0xFF	; 255
 3d8:	b8 01       	movw	r22, r16
 3da:	4a e0       	ldi	r20, 0x0A	; 10
 3dc:	50 e0       	ldi	r21, 0x00	; 0
 3de:	0e 94 12 02 	call	0x424	; 0x424 <itoa>
	Send_Kort_Streng(adcResult);
 3e2:	c8 01       	movw	r24, r16
 3e4:	0e 94 f1 00 	call	0x1e2	; 0x1e2 <Send_Kort_Streng>
	Send_Kort_Streng("  ");
 3e8:	82 e9       	ldi	r24, 0x92	; 146
 3ea:	90 e0       	ldi	r25, 0x00	; 0
 3ec:	0e 94 f1 00 	call	0x1e2	; 0x1e2 <Send_Kort_Streng>

	ADCSRA |=1<<ADSC;
 3f0:	36 9a       	sbi	0x06, 6	; 6
}
 3f2:	0f 90       	pop	r0
 3f4:	0f 90       	pop	r0
 3f6:	0f 90       	pop	r0
 3f8:	0f 90       	pop	r0
 3fa:	cf 91       	pop	r28
 3fc:	df 91       	pop	r29
 3fe:	ff 91       	pop	r31
 400:	ef 91       	pop	r30
 402:	bf 91       	pop	r27
 404:	af 91       	pop	r26
 406:	9f 91       	pop	r25
 408:	8f 91       	pop	r24
 40a:	7f 91       	pop	r23
 40c:	6f 91       	pop	r22
 40e:	5f 91       	pop	r21
 410:	4f 91       	pop	r20
 412:	3f 91       	pop	r19
 414:	2f 91       	pop	r18
 416:	1f 91       	pop	r17
 418:	0f 91       	pop	r16
 41a:	0f 90       	pop	r0
 41c:	0f be       	out	0x3f, r0	; 63
 41e:	0f 90       	pop	r0
 420:	1f 90       	pop	r1
 422:	18 95       	reti

00000424 <itoa>:
 424:	fb 01       	movw	r30, r22
 426:	9f 01       	movw	r18, r30
 428:	e8 94       	clt
 42a:	42 30       	cpi	r20, 0x02	; 2
 42c:	c4 f0       	brlt	.+48     	; 0x45e <itoa+0x3a>
 42e:	45 32       	cpi	r20, 0x25	; 37
 430:	b4 f4       	brge	.+44     	; 0x45e <itoa+0x3a>
 432:	4a 30       	cpi	r20, 0x0A	; 10
 434:	29 f4       	brne	.+10     	; 0x440 <itoa+0x1c>
 436:	97 fb       	bst	r25, 7
 438:	1e f4       	brtc	.+6      	; 0x440 <itoa+0x1c>
 43a:	90 95       	com	r25
 43c:	81 95       	neg	r24
 43e:	9f 4f       	sbci	r25, 0xFF	; 255
 440:	64 2f       	mov	r22, r20
 442:	77 27       	eor	r23, r23
 444:	0e 94 43 02 	call	0x486	; 0x486 <__udivmodhi4>
 448:	80 5d       	subi	r24, 0xD0	; 208
 44a:	8a 33       	cpi	r24, 0x3A	; 58
 44c:	0c f0       	brlt	.+2      	; 0x450 <itoa+0x2c>
 44e:	89 5d       	subi	r24, 0xD9	; 217
 450:	81 93       	st	Z+, r24
 452:	cb 01       	movw	r24, r22
 454:	00 97       	sbiw	r24, 0x00	; 0
 456:	a1 f7       	brne	.-24     	; 0x440 <itoa+0x1c>
 458:	16 f4       	brtc	.+4      	; 0x45e <itoa+0x3a>
 45a:	5d e2       	ldi	r21, 0x2D	; 45
 45c:	51 93       	st	Z+, r21
 45e:	10 82       	st	Z, r1
 460:	c9 01       	movw	r24, r18
 462:	0c 94 33 02 	jmp	0x466	; 0x466 <strrev>

00000466 <strrev>:
 466:	dc 01       	movw	r26, r24
 468:	fc 01       	movw	r30, r24
 46a:	67 2f       	mov	r22, r23
 46c:	71 91       	ld	r23, Z+
 46e:	77 23       	and	r23, r23
 470:	e1 f7       	brne	.-8      	; 0x46a <strrev+0x4>
 472:	32 97       	sbiw	r30, 0x02	; 2
 474:	04 c0       	rjmp	.+8      	; 0x47e <strrev+0x18>
 476:	7c 91       	ld	r23, X
 478:	6d 93       	st	X+, r22
 47a:	70 83       	st	Z, r23
 47c:	62 91       	ld	r22, -Z
 47e:	ae 17       	cp	r26, r30
 480:	bf 07       	cpc	r27, r31
 482:	c8 f3       	brcs	.-14     	; 0x476 <strrev+0x10>
 484:	08 95       	ret

00000486 <__udivmodhi4>:
 486:	aa 1b       	sub	r26, r26
 488:	bb 1b       	sub	r27, r27
 48a:	51 e1       	ldi	r21, 0x11	; 17
 48c:	07 c0       	rjmp	.+14     	; 0x49c <__udivmodhi4_ep>

0000048e <__udivmodhi4_loop>:
 48e:	aa 1f       	adc	r26, r26
 490:	bb 1f       	adc	r27, r27
 492:	a6 17       	cp	r26, r22
 494:	b7 07       	cpc	r27, r23
 496:	10 f0       	brcs	.+4      	; 0x49c <__udivmodhi4_ep>
 498:	a6 1b       	sub	r26, r22
 49a:	b7 0b       	sbc	r27, r23

0000049c <__udivmodhi4_ep>:
 49c:	88 1f       	adc	r24, r24
 49e:	99 1f       	adc	r25, r25
 4a0:	5a 95       	dec	r21
 4a2:	a9 f7       	brne	.-22     	; 0x48e <__udivmodhi4_loop>
 4a4:	80 95       	com	r24
 4a6:	90 95       	com	r25
 4a8:	bc 01       	movw	r22, r24
 4aa:	cd 01       	movw	r24, r26
 4ac:	08 95       	ret

000004ae <_exit>:
 4ae:	f8 94       	cli

000004b0 <__stop_program>:
 4b0:	ff cf       	rjmp	.-2      	; 0x4b0 <__stop_program>
